; Function Attrs: nofree norecurse nosync nounwind memory(argmem: readwrite) uwtable
define internal void @blend_reflect_10bit(ptr noundef readonly captures(none) %0, i64 noundef %1, ptr noundef readonly captures(none) %2, i64 noundef %3, ptr noundef writeonly captures(none) %4, i64 noundef %5, i64 noundef %6, i64 noundef %7, ptr noundef readonly captures(none) %8, ptr readnone captures(none) %9) #6 {
  %11 = getelementptr inbounds nuw i8, ptr %8, i64 8
  %12 = load double, ptr %11, align 8, !tbaa !70
  %13 = fptrunc nsz double %12 to float
  %14 = lshr i64 %5, 1
  %15 = lshr i64 %1, 1
  %16 = lshr i64 %3, 1
  %17 = icmp sgt i64 %7, 0
  %18 = icmp sgt i64 %6, 0
  %or.cond = and i1 %17, %18
  br i1 %or.cond, label %.preheader.us, label %._crit_edge53

.preheader.us:                                    ; preds = %10, %._crit_edge.us
  %indvars.iv57 = phi i64 [ %indvars.iv.next58, %._crit_edge.us ], [ 0, %10 ]
  %.04251.us = phi ptr [ %39, %._crit_edge.us ], [ %4, %10 ]
  %.04350.us = phi ptr [ %41, %._crit_edge.us ], [ %2, %10 ]
  %.04449.us = phi ptr [ %40, %._crit_edge.us ], [ %0, %10 ]
  br label %19

19:                                               ; preds = %.preheader.us, %32
  %indvars.iv = phi i64 [ 0, %.preheader.us ], [ %indvars.iv.next, %32 ]
  %20 = getelementptr inbounds nuw i16, ptr %.04449.us, i64 %indvars.iv
  %21 = load i16, ptr %20, align 2, !tbaa !85
  %22 = uitofp i16 %21 to float
  %23 = getelementptr inbounds nuw i16, ptr %.04350.us, i64 %indvars.iv
  %24 = load i16, ptr %23, align 2, !tbaa !85
  %25 = icmp eq i16 %24, 1023
  br i1 %25, label %._crit_edge, label %26

._crit_edge:                                      ; preds = %19
  %.pre = zext i16 %21 to i32
  br label %32

26:                                               ; preds = %19
  %27 = zext i16 %24 to i32
  %28 = zext i16 %21 to i32
  %29 = mul nuw nsw i32 %28, %28
  %30 = sub nsw i32 1023, %27
  %31 = sdiv i32 %29, %30
  %spec.select.us = tail call i32 @llvm.smin.i32(i32 %31, i32 1023)
  br label %32

32:                                               ; preds = %._crit_edge, %26
  %.pre-phi = phi i32 [ %.pre, %._crit_edge ], [ %28, %26 ]
  %33 = phi i32 [ 1023, %._crit_edge ], [ %spec.select.us, %26 ]
  %34 = sub nsw i32 %33, %.pre-phi
  %35 = sitofp i32 %34 to float
  %36 = tail call nsz float @llvm.fmuladd.f32(float %35, float %13, float %22)
  %37 = fptoui float %36 to i16
  %38 = getelementptr inbounds nuw i16, ptr %.04251.us, i64 %indvars.iv
  store i16 %37, ptr %38, align 2, !tbaa !85
  %indvars.iv.next = add nuw nsw i64 %indvars.iv, 1
  %exitcond.not = icmp eq i64 %indvars.iv.next, %6
  br i1 %exitcond.not, label %._crit_edge.us, label %19, !llvm.loop !304

._crit_edge.us:                                   ; preds = %32
  %39 = getelementptr inbounds nuw i16, ptr %.04251.us, i64 %14
  %40 = getelementptr inbounds nuw i16, ptr %.04449.us, i64 %15
  %41 = getelementptr inbounds nuw i16, ptr %.04350.us, i64 %16
  %indvars.iv.next58 = add nuw nsw i64 %indvars.iv57, 1
  %exitcond60.not = icmp eq i64 %indvars.iv.next58, %7
  br i1 %exitcond60.not, label %._crit_edge53, label %.preheader.us, !llvm.loop !305

._crit_edge53:                                    ; preds = %._crit_edge.us, %10
  ret void
}